###############################################################################
#
# IAR ELF Linker V7.10.3.6832/W32 for ARM                 09/Jun/2015  17:48:24
# Copyright 2007-2014 IAR Systems AB.
#
#    Output file  =  D:\IAR_Workspace\STM32F103MBUS\Test\Debug\Exe\Test.out
#    Map file     =  D:\IAR_Workspace\STM32F103MBUS\Test\Debug\List\Test.map
#    Command line =  
#        D:\IAR_Workspace\STM32F103MBUS\Test\Debug\Obj\bsp.o
#        D:\IAR_Workspace\STM32F103MBUS\Test\Debug\Obj\cpu_a.o
#        D:\IAR_Workspace\STM32F103MBUS\Test\Debug\Obj\cpu_c.o
#        D:\IAR_Workspace\STM32F103MBUS\Test\Debug\Obj\cpu_core.o
#        D:\IAR_Workspace\STM32F103MBUS\Test\Debug\Obj\lib_ascii.o
#        D:\IAR_Workspace\STM32F103MBUS\Test\Debug\Obj\lib_math.o
#        D:\IAR_Workspace\STM32F103MBUS\Test\Debug\Obj\lib_mem.o
#        D:\IAR_Workspace\STM32F103MBUS\Test\Debug\Obj\lib_mem_a.o
#        D:\IAR_Workspace\STM32F103MBUS\Test\Debug\Obj\lib_str.o
#        D:\IAR_Workspace\STM32F103MBUS\Test\Debug\Obj\m590e.o
#        D:\IAR_Workspace\STM32F103MBUS\Test\Debug\Obj\main.o
#        D:\IAR_Workspace\STM32F103MBUS\Test\Debug\Obj\misc.o
#        D:\IAR_Workspace\STM32F103MBUS\Test\Debug\Obj\os_app_hooks.o
#        D:\IAR_Workspace\STM32F103MBUS\Test\Debug\Obj\os_cfg_app.o
#        D:\IAR_Workspace\STM32F103MBUS\Test\Debug\Obj\os_core.o
#        D:\IAR_Workspace\STM32F103MBUS\Test\Debug\Obj\os_cpu_a.o
#        D:\IAR_Workspace\STM32F103MBUS\Test\Debug\Obj\os_cpu_c.o
#        D:\IAR_Workspace\STM32F103MBUS\Test\Debug\Obj\os_dbg.o
#        D:\IAR_Workspace\STM32F103MBUS\Test\Debug\Obj\os_flag.o
#        D:\IAR_Workspace\STM32F103MBUS\Test\Debug\Obj\os_int.o
#        D:\IAR_Workspace\STM32F103MBUS\Test\Debug\Obj\os_mem.o
#        D:\IAR_Workspace\STM32F103MBUS\Test\Debug\Obj\os_msg.o
#        D:\IAR_Workspace\STM32F103MBUS\Test\Debug\Obj\os_mutex.o
#        D:\IAR_Workspace\STM32F103MBUS\Test\Debug\Obj\os_pend_multi.o
#        D:\IAR_Workspace\STM32F103MBUS\Test\Debug\Obj\os_prio.o
#        D:\IAR_Workspace\STM32F103MBUS\Test\Debug\Obj\os_q.o
#        D:\IAR_Workspace\STM32F103MBUS\Test\Debug\Obj\os_sem.o
#        D:\IAR_Workspace\STM32F103MBUS\Test\Debug\Obj\os_stat.o
#        D:\IAR_Workspace\STM32F103MBUS\Test\Debug\Obj\os_task.o
#        D:\IAR_Workspace\STM32F103MBUS\Test\Debug\Obj\os_tick.o
#        D:\IAR_Workspace\STM32F103MBUS\Test\Debug\Obj\os_time.o
#        D:\IAR_Workspace\STM32F103MBUS\Test\Debug\Obj\os_tmr.o
#        D:\IAR_Workspace\STM32F103MBUS\Test\Debug\Obj\os_var.o
#        D:\IAR_Workspace\STM32F103MBUS\Test\Debug\Obj\serial.o
#        D:\IAR_Workspace\STM32F103MBUS\Test\Debug\Obj\spi_flash.o
#        D:\IAR_Workspace\STM32F103MBUS\Test\Debug\Obj\startup_stm32f10x_md.o
#        D:\IAR_Workspace\STM32F103MBUS\Test\Debug\Obj\stm32f10x_adc.o
#        D:\IAR_Workspace\STM32F103MBUS\Test\Debug\Obj\stm32f10x_bkp.o
#        D:\IAR_Workspace\STM32F103MBUS\Test\Debug\Obj\stm32f10x_can.o
#        D:\IAR_Workspace\STM32F103MBUS\Test\Debug\Obj\stm32f10x_cec.o
#        D:\IAR_Workspace\STM32F103MBUS\Test\Debug\Obj\stm32f10x_crc.o
#        D:\IAR_Workspace\STM32F103MBUS\Test\Debug\Obj\stm32f10x_dac.o
#        D:\IAR_Workspace\STM32F103MBUS\Test\Debug\Obj\stm32f10x_dbgmcu.o
#        D:\IAR_Workspace\STM32F103MBUS\Test\Debug\Obj\stm32f10x_dma.o
#        D:\IAR_Workspace\STM32F103MBUS\Test\Debug\Obj\stm32f10x_exti.o
#        D:\IAR_Workspace\STM32F103MBUS\Test\Debug\Obj\stm32f10x_flash.o
#        D:\IAR_Workspace\STM32F103MBUS\Test\Debug\Obj\stm32f10x_fsmc.o
#        D:\IAR_Workspace\STM32F103MBUS\Test\Debug\Obj\stm32f10x_gpio.o
#        D:\IAR_Workspace\STM32F103MBUS\Test\Debug\Obj\stm32f10x_i2c.o
#        D:\IAR_Workspace\STM32F103MBUS\Test\Debug\Obj\stm32f10x_it.o
#        D:\IAR_Workspace\STM32F103MBUS\Test\Debug\Obj\stm32f10x_iwdg.o
#        D:\IAR_Workspace\STM32F103MBUS\Test\Debug\Obj\stm32f10x_pwr.o
#        D:\IAR_Workspace\STM32F103MBUS\Test\Debug\Obj\stm32f10x_rcc.o
#        D:\IAR_Workspace\STM32F103MBUS\Test\Debug\Obj\stm32f10x_rtc.o
#        D:\IAR_Workspace\STM32F103MBUS\Test\Debug\Obj\stm32f10x_sdio.o
#        D:\IAR_Workspace\STM32F103MBUS\Test\Debug\Obj\stm32f10x_spi.o
#        D:\IAR_Workspace\STM32F103MBUS\Test\Debug\Obj\stm32f10x_tim.o
#        D:\IAR_Workspace\STM32F103MBUS\Test\Debug\Obj\stm32f10x_usart.o
#        D:\IAR_Workspace\STM32F103MBUS\Test\Debug\Obj\stm32f10x_wwdg.o
#        D:\IAR_Workspace\STM32F103MBUS\Test\Debug\Obj\system_stm32f10x.o
#        D:\IAR_Workspace\STM32F103MBUS\Test\Debug\Obj\tasks.o
#        D:\IAR_Workspace\STM32F103MBUS\Test\Debug\Obj\timestamp.o -o
#        D:\IAR_Workspace\STM32F103MBUS\Test\Debug\Exe\Test.out --map
#        D:\IAR_Workspace\STM32F103MBUS\Test\Debug\List\Test.map --config
#        "D:\Program Files (x86)\IAR Systems\Embedded Workbench
#        7.0\arm\config\linker\ST\stm32f103xB.icf" --semihosting --entry
#        __iar_program_start --vfe
#
###############################################################################

*******************************************************************************
*** RUNTIME MODEL ATTRIBUTES
***

CppFlavor       = *
__SystemLibrary = DLib


*******************************************************************************
*** PLACEMENT SUMMARY
***

"A1":  place at 0x08000000 { ro section .intvec };
"P1":  place in [from 0x08000000 to 0x0801ffff] { ro };
"P2":  place in [from 0x20000000 to 0x20004fff] { rw, block CSTACK, block HEAP };

  Section            Kind        Address    Size  Object
  -------            ----        -------    ----  ------
"A1":                                       0xec
  .intvec            ro code  0x08000000    0xec  startup_stm32f10x_md.o [1]
                            - 0x080000ec    0xec

"P1":                                     0xb2a0
  .text              ro code  0x080000ec  0x36a4  tasks.o [1]
  .text              ro code  0x08003790   0x598  os_tmr.o [1]
  .text              ro code  0x08003d28   0x180  os_mem.o [1]
  .text              ro code  0x08003ea8   0x11c  lib_mem.o [1]
  .text              ro code  0x08003fc4   0x384  os_q.o [1]
  .text              ro code  0x08004348   0xa3c  m590e.o [1]
  .text              ro code  0x08004d84   0x388  serial.o [1]
  .text              ro code  0x0800510c   0x302  os_sem.o [1]
  .text              ro code  0x0800540e    0x2e  copy_init3.o [5]
  .text              ro code  0x0800543c   0x1ce  lib_str.o [1]
  .text              ro code  0x0800560a    0x22  zero_init3.o [5]
  CODE               ro code  0x0800562c   0x220  lib_mem_a.o [1]
  .text              ro code  0x0800584c   0x1ec  os_time.o [1]
  .text              ro code  0x08005a38   0x1c4  stm32f10x_gpio.o [1]
  .text              ro code  0x08005bfc   0x72c  spi_flash.o [1]
  .text              ro code  0x08006328    0x34  sprintf.o [3]
  .text              ro code  0x0800635c   0x6aa  os_flag.o [1]
  .text              ro code  0x08006a06     0xa  xsprout.o [3]
  CODE               ro code  0x08006a10    0x34  cpu_a.o [1]
  .text              ro code  0x08006a44   0x954  os_core.o [1]
  .text              ro code  0x08007398   0x694  os_task.o [1]
  .text              ro code  0x08007a2c    0x3c  timestamp.o [1]
  .text              ro code  0x08007a68   0x1fc  os_msg.o [1]
  .text              ro code  0x08007c64   0x17e  stm32f10x_usart.o [1]
  .rodata            const    0x08007de2     0x2  os_cfg_app.o [1]
  .text              ro code  0x08007de4    0xc8  stm32f10x_exti.o [1]
  .text              ro code  0x08007eac   0x418  os_tick.o [1]
  .text              ro code  0x080082c4   0x1d8  os_cpu_c.o [1]
  .text              ro code  0x0800849c    0xa4  stm32f10x_spi.o [1]
  .text              ro code  0x08008540   0xd86  xprintffull_nomb.o [3]
  .rodata            const    0x080092c6     0x2  os_cfg_app.o [1]
  .text              ro code  0x080092c8    0x88  os_prio.o [1]
  .text              ro code  0x08009350    0x10  os_mutex.o [1]
  .text              ro code  0x08009360    0xac  os_cfg_app.o [1]
  CODE               ro code  0x0800940c    0x84  os_cpu_a.o [1]
  .text              ro code  0x08009490   0x4ca  bsp.o [1]
  .rodata            const    0x0800995a     0x2  os_cfg_app.o [1]
  .text              ro code  0x0800995c    0x4c  cpu_core.o [1]
  .text              ro code  0x080099a8   0x258  stm32f10x_rcc.o [1]
  .text              ro code  0x08009c00    0x16  strchr.o [5]
  .rodata            const    0x08009c16     0x1  os_cfg_app.o [1]
  .rodata            const    0x08009c17     0x1  os_cfg_app.o [1]
  .text              ro code  0x08009c18    0x36  strlen.o [5]
  .text              ro code  0x08009c50    0x58  memchr.o [5]
  .text              ro code  0x08009ca8    0xee  I64DivMod.o [5]
  .text              ro code  0x08009d98    0x76  ABImemcpy_unaligned.o [5]
  .text              ro code  0x08009e0e    0x42  xdnorm.o [4]
  .text              ro code  0x08009e50    0x2e  DblCmpLe.o [4]
  .text              ro code  0x08009e80    0x2e  DblCmpGe.o [4]
  .text              ro code  0x08009eb0   0x10c  xdscale.o [4]
  .text              ro code  0x08009fbc    0x58  DblToI32.o [4]
  .text              ro code  0x0800a014    0x30  I32ToDbl.o [4]
  .text              ro code  0x0800a044   0x180  DblSub.o [4]
  .text              ro code  0x0800a1c4   0x1a2  DblMul.o [4]
  .text              ro code  0x0800a368   0x246  DblDiv.o [4]
  .text              ro code  0x0800a5ae     0xe  div.o [3]
  .text              ro code  0x0800a5bc    0x3c  stm32f10x_flash.o [1]
  .text              ro code  0x0800a5f8    0x80  misc.o [1]
  .text              ro code  0x0800a678    0x2c  stm32f10x_iwdg.o [1]
  .text              ro code  0x0800a6a4     0x2  I64DivZer.o [5]
  .text              ro code  0x0800a6a8    0xd4  DblAdd.o [4]
  .text              ro code  0x0800a77c   0x6ac  main.o [1]
  .text              ro code  0x0800ae28    0x6e  system_stm32f10x.o [1]
  .text              ro code  0x0800ae96    0x36  stm32f10x_it.o [1]
  .text              ro code  0x0800aecc    0x28  data_init.o [5]
  .iar.init_table    const    0x0800aef4    0x24  - Linker created -
  .rodata            const    0x0800af18    0x1c  tasks.o [1]
  .text              ro code  0x0800af34    0x1a  cmain.o [5]
  .text              ro code  0x0800af4e     0x4  low_level_init.o [3]
  .text              ro code  0x0800af52     0x4  exit.o [3]
  .text              ro code  0x0800af58     0xa  cexit.o [5]
  .text              ro code  0x0800af64    0x14  exit.o [6]
  .rodata            const    0x0800af78    0x18  os_tmr.o [1]
  .rodata            const    0x0800af90    0x18  tasks.o [1]
  .rodata            const    0x0800afa8    0x14  m590e.o [1]
  .rodata            const    0x0800afbc    0x14  os_core.o [1]
  .rodata            const    0x0800afd0    0x14  os_tick.o [1]
  .rodata            const    0x0800afe4    0x10  m590e.o [1]
  .rodata            const    0x0800aff4    0x10  m590e.o [1]
  .rodata            const    0x0800b004    0x10  m590e.o [1]
  .rodata            const    0x0800b014    0x10  m590e.o [1]
  .rodata            const    0x0800b024    0x10  m590e.o [1]
  .rodata            const    0x0800b034    0x10  tasks.o [1]
  .text              ro code  0x0800b044    0x10  startup_stm32f10x_md.o [1]
  .rodata            const    0x0800b054     0xc  m590e.o [1]
  .rodata            const    0x0800b060     0xc  m590e.o [1]
  .rodata            const    0x0800b06c     0xc  m590e.o [1]
  .rodata            const    0x0800b078     0xc  m590e.o [1]
  .rodata            const    0x0800b084     0xc  m590e.o [1]
  .rodata            const    0x0800b090     0xc  m590e.o [1]
  .rodata            const    0x0800b09c     0xc  m590e.o [1]
  .rodata            const    0x0800b0a8     0xc  m590e.o [1]
  .rodata            const    0x0800b0b4     0xc  m590e.o [1]
  .rodata            const    0x0800b0c0     0xc  m590e.o [1]
  .rodata            const    0x0800b0cc     0xc  m590e.o [1]
  .rodata            const    0x0800b0d8     0xc  m590e.o [1]
  .rodata            const    0x0800b0e4     0xc  m590e.o [1]
  .rodata            const    0x0800b0f0     0xc  main.o [1]
  .rodata            const    0x0800b0fc     0xc  main.o [1]
  .rodata            const    0x0800b108     0xc  main.o [1]
  .rodata            const    0x0800b114     0xc  main.o [1]
  .rodata            const    0x0800b120     0xc  tasks.o [1]
  .rodata            const    0x0800b12c     0xc  tasks.o [1]
  .text              ro code  0x0800b138     0xc  cstartup_M.o [5]
  .rodata            const    0x0800b144     0x8  m590e.o [1]
  .rodata            const    0x0800b14c     0x8  m590e.o [1]
  .rodata            const    0x0800b154     0x8  m590e.o [1]
  .rodata            const    0x0800b15c     0x8  m590e.o [1]
  .rodata            const    0x0800b164     0x8  m590e.o [1]
  .rodata            const    0x0800b16c     0x8  main.o [1]
  .rodata            const    0x0800b174     0x8  main.o [1]
  .rodata            const    0x0800b17c     0x8  main.o [1]
  .rodata            const    0x0800b184     0x8  main.o [1]
  .rodata            const    0x0800b18c     0x8  main.o [1]
  .rodata            const    0x0800b194     0x8  main.o [1]
  .rodata            const    0x0800b19c     0x8  main.o [1]
  .rodata            const    0x0800b1a4     0x8  main.o [1]
  .rodata            const    0x0800b1ac     0x8  main.o [1]
  .rodata            const    0x0800b1b4     0x8  main.o [1]
  .rodata            const    0x0800b1bc     0x8  main.o [1]
  .rodata            const    0x0800b1c4     0x8  main.o [1]
  .rodata            const    0x0800b1cc     0x8  main.o [1]
  .rodata            const    0x0800b1d4     0x8  main.o [1]
  .rodata            const    0x0800b1dc     0x8  main.o [1]
  .rodata            const    0x0800b1e4     0x8  main.o [1]
  .rodata            const    0x0800b1ec     0x8  main.o [1]
  .rodata            const    0x0800b1f4     0x8  main.o [1]
  .rodata            const    0x0800b1fc     0x8  main.o [1]
  .rodata            const    0x0800b204     0x8  os_task.o [1]
  .rodata            const    0x0800b20c     0x8  tasks.o [1]
  .rodata            const    0x0800b214     0x8  tasks.o [1]
  .rodata            const    0x0800b21c     0x4  os_cfg_app.o [1]
  .rodata            const    0x0800b220     0x4  os_cfg_app.o [1]
  .rodata            const    0x0800b224     0x4  os_cfg_app.o [1]
  .rodata            const    0x0800b228     0x4  os_cfg_app.o [1]
  .rodata            const    0x0800b22c     0x4  os_cfg_app.o [1]
  .rodata            const    0x0800b230     0x4  os_cfg_app.o [1]
  .rodata            const    0x0800b234     0x4  os_cfg_app.o [1]
  .rodata            const    0x0800b238     0x4  os_cfg_app.o [1]
  .rodata            const    0x0800b23c     0x4  os_cfg_app.o [1]
  .rodata            const    0x0800b240     0x4  os_cfg_app.o [1]
  .rodata            const    0x0800b244     0x4  os_cfg_app.o [1]
  .rodata            const    0x0800b248     0x4  os_cfg_app.o [1]
  .rodata            const    0x0800b24c     0x4  os_cfg_app.o [1]
  .rodata            const    0x0800b250     0x4  os_cfg_app.o [1]
  .rodata            const    0x0800b254     0x4  os_cfg_app.o [1]
  .rodata            const    0x0800b258     0x4  os_cfg_app.o [1]
  .rodata            const    0x0800b25c     0x4  os_cfg_app.o [1]
  .rodata            const    0x0800b260     0x4  os_cfg_app.o [1]
  .rodata            const    0x0800b264     0x4  os_cfg_app.o [1]
  .rodata            const    0x0800b268     0x4  os_cfg_app.o [1]
  .rodata            const    0x0800b26c     0x4  os_cfg_app.o [1]
  .rodata            const    0x0800b270     0x4  os_cfg_app.o [1]
  .rodata            const    0x0800b274     0x4  os_cfg_app.o [1]
  .text              ro code  0x0800b278     0x4  startup_stm32f10x_md.o [1]
  .text              ro code  0x0800b27c     0x4  startup_stm32f10x_md.o [1]
  .text              ro code  0x0800b280     0x4  startup_stm32f10x_md.o [1]
  .text              ro code  0x0800b284     0x4  startup_stm32f10x_md.o [1]
  .text              ro code  0x0800b288     0x4  startup_stm32f10x_md.o [1]
  .text              ro code  0x0800b28c     0x4  startup_stm32f10x_md.o [1]
  .text              ro code  0x0800b290     0x4  startup_stm32f10x_md.o [1]
  .text              ro code  0x0800b294     0x4  startup_stm32f10x_md.o [1]
  .text              ro code  0x0800b298     0x4  startup_stm32f10x_md.o [1]
  .text              ro code  0x0800b29c     0x4  startup_stm32f10x_md.o [1]
  .text              ro code  0x0800b2a0     0x4  startup_stm32f10x_md.o [1]
  .text              ro code  0x0800b2a4     0x4  startup_stm32f10x_md.o [1]
  .text              ro code  0x0800b2a8     0x4  startup_stm32f10x_md.o [1]
  .text              ro code  0x0800b2ac     0x4  startup_stm32f10x_md.o [1]
  .text              ro code  0x0800b2b0     0x4  startup_stm32f10x_md.o [1]
  .text              ro code  0x0800b2b4     0x4  startup_stm32f10x_md.o [1]
  .text              ro code  0x0800b2b8     0x4  startup_stm32f10x_md.o [1]
  .text              ro code  0x0800b2bc     0x4  startup_stm32f10x_md.o [1]
  .text              ro code  0x0800b2c0     0x4  startup_stm32f10x_md.o [1]
  .text              ro code  0x0800b2c4     0x4  startup_stm32f10x_md.o [1]
  .text              ro code  0x0800b2c8     0x4  startup_stm32f10x_md.o [1]
  .text              ro code  0x0800b2cc     0x4  startup_stm32f10x_md.o [1]
  .text              ro code  0x0800b2d0     0x4  startup_stm32f10x_md.o [1]
  .text              ro code  0x0800b2d4     0x4  startup_stm32f10x_md.o [1]
  .text              ro code  0x0800b2d8     0x4  startup_stm32f10x_md.o [1]
  .text              ro code  0x0800b2dc     0x4  startup_stm32f10x_md.o [1]
  .text              ro code  0x0800b2e0     0x4  startup_stm32f10x_md.o [1]
  .text              ro code  0x0800b2e4     0x4  startup_stm32f10x_md.o [1]
  .text              ro code  0x0800b2e8     0x4  startup_stm32f10x_md.o [1]
  .text              ro code  0x0800b2ec     0x4  startup_stm32f10x_md.o [1]
  .text              ro code  0x0800b2f0     0x4  startup_stm32f10x_md.o [1]
  .text              ro code  0x0800b2f4     0x4  startup_stm32f10x_md.o [1]
  .text              ro code  0x0800b2f8     0x4  startup_stm32f10x_md.o [1]
  .text              ro code  0x0800b2fc     0x4  startup_stm32f10x_md.o [1]
  .text              ro code  0x0800b300     0x4  startup_stm32f10x_md.o [1]
  .text              ro code  0x0800b304     0x4  startup_stm32f10x_md.o [1]
  .text              ro code  0x0800b308     0x4  startup_stm32f10x_md.o [1]
  .text              ro code  0x0800b30c     0x4  startup_stm32f10x_md.o [1]
  .text              ro code  0x0800b310     0x4  startup_stm32f10x_md.o [1]
  .rodata            const    0x0800b314     0x0  zero_init3.o [5]
  .rodata            const    0x0800b314     0x0  copy_init3.o [5]
  Initializer bytes  ro data  0x0800b314    0x78  <for P2 s0>
                            - 0x0800b38c  0xb2a0

"P2", part 1 of 3:                          0x78
  P2 s0                       0x20000000    0x78  <Init block>
    .data            inited   0x20000000    0x1c  m590e.o [1]
    .data            inited   0x2000001c    0x14  m590e.o [1]
    .data            inited   0x20000030    0x10  stm32f10x_rcc.o [1]
    .data            inited   0x20000040     0xc  m590e.o [1]
    .data            inited   0x2000004c     0xc  m590e.o [1]
    .data            inited   0x20000058     0xc  m590e.o [1]
    .data            inited   0x20000064     0x8  m590e.o [1]
    .data            inited   0x2000006c     0x4  stm32f10x_rcc.o [1]
    .data            inited   0x20000070     0x2  m590e.o [1]
    .data            inited   0x20000072     0x1  m590e.o [1]
    .data            inited   0x20000073     0x1  m590e.o [1]
    .data            inited   0x20000074     0x1  m590e.o [1]
    .data            inited   0x20000075     0x1  m590e.o [1]
    .data            inited   0x20000076     0x1  main.o [1]
                            - 0x20000078    0x78

"P2", part 2 of 3:                        0x4008
  .bss               zero     0x20000078   0x640  os_cfg_app.o [1]
  .bss               zero     0x200006b8   0x600  main.o [1]
  .bss               zero     0x20000cb8   0x600  main.o [1]
  .bss               zero     0x200012b8   0x600  main.o [1]
  .bss               zero     0x200018b8   0x200  main.o [1]
  .bss               zero     0x20001ab8   0x200  main.o [1]
  .bss               zero     0x20001cb8   0x200  main.o [1]
  .bss               zero     0x20001eb8   0x200  main.o [1]
  .bss               zero     0x200020b8   0x200  main.o [1]
  .bss               zero     0x200022b8   0x200  main.o [1]
  .bss               zero     0x200024b8   0x200  main.o [1]
  .bss               zero     0x200026b8   0x200  main.o [1]
  .bss               zero     0x200028b8   0x200  os_cfg_app.o [1]
  .bss               zero     0x20002ab8   0x200  os_cfg_app.o [1]
  .bss               zero     0x20002cb8   0x200  os_cfg_app.o [1]
  .bss               zero     0x20002eb8   0x200  os_cfg_app.o [1]
  .bss               zero     0x200030b8   0x180  os_var.o [1]
  .bss               zero     0x20003238    0xb4  main.o [1]
  .bss               zero     0x200032ec    0xb4  main.o [1]
  .bss               zero     0x200033a0    0xb4  main.o [1]
  .bss               zero     0x20003454    0xb4  main.o [1]
  .bss               zero     0x20003508    0xb4  main.o [1]
  .bss               zero     0x200035bc    0xb4  main.o [1]
  .bss               zero     0x20003670    0xb4  main.o [1]
  .bss               zero     0x20003724    0xb4  main.o [1]
  .bss               zero     0x200037d8    0xb4  main.o [1]
  .bss               zero     0x2000388c    0xb4  main.o [1]
  .bss               zero     0x20003940    0xb4  os_var.o [1]
  .bss               zero     0x200039f4    0xb4  os_var.o [1]
  .bss               zero     0x20003aa8    0xb4  os_var.o [1]
  .bss               zero     0x20003b5c    0x88  os_cfg_app.o [1]
  .bss               zero     0x20003be4    0x88  os_cfg_app.o [1]
  .bss               zero     0x20003c6c    0x78  main.o [1]
  .bss               zero     0x20003ce4    0x2c  main.o [1]
  .bss               zero     0x20003d10    0x2c  main.o [1]
  .bss               zero     0x20003d3c    0x2c  main.o [1]
  .bss               zero     0x20003d68    0x2c  main.o [1]
  .bss               zero     0x20003d94    0x2c  main.o [1]
  .bss               zero     0x20003dc0    0x24  main.o [1]
  .bss               zero     0x20003de4    0x24  main.o [1]
  .bss               zero     0x20003e08    0x24  main.o [1]
  .bss               zero     0x20003e2c    0x24  main.o [1]
  .bss               zero     0x20003e50    0x24  main.o [1]
  .bss               zero     0x20003e74    0x24  main.o [1]
  .bss               zero     0x20003e98    0x1c  main.o [1]
  .bss               zero     0x20003eb4    0x1c  main.o [1]
  .bss               zero     0x20003ed0    0x1c  main.o [1]
  .bss               zero     0x20003eec    0x1c  main.o [1]
  .bss               zero     0x20003f08    0x1c  main.o [1]
  .bss               zero     0x20003f24    0x1c  main.o [1]
  .bss               zero     0x20003f40    0x1c  main.o [1]
  .bss               zero     0x20003f5c    0x1c  main.o [1]
  .bss               zero     0x20003f78    0x1c  main.o [1]
  .bss               zero     0x20003f94    0x1c  main.o [1]
  .bss               zero     0x20003fb0    0x18  main.o [1]
  .bss               zero     0x20003fc8    0x18  main.o [1]
  .bss               zero     0x20003fe0    0x10  cpu_core.o [1]
  .bss               zero     0x20003ff0     0xc  os_var.o [1]
  .bss               zero     0x20003ffc     0x8  m590e.o [1]
  .bss               zero     0x20004004     0x4  cpu_core.o [1]
  .bss               zero     0x20004008     0x4  os_cpu_c.o [1]
  .bss               zero     0x2000400c     0x4  os_prio.o [1]
  .bss               zero     0x20004010     0x4  os_var.o [1]
  .bss               zero     0x20004014     0x4  os_var.o [1]
  .bss               zero     0x20004018     0x4  os_var.o [1]
  .bss               zero     0x2000401c     0x4  os_var.o [1]
  .bss               zero     0x20004020     0x4  os_var.o [1]
  .bss               zero     0x20004024     0x4  os_var.o [1]
  .bss               zero     0x20004028     0x4  os_var.o [1]
  .bss               zero     0x2000402c     0x4  os_var.o [1]
  .bss               zero     0x20004030     0x4  os_var.o [1]
  .bss               zero     0x20004034     0x4  os_var.o [1]
  .bss               zero     0x20004038     0x4  os_var.o [1]
  .bss               zero     0x2000403c     0x4  os_var.o [1]
  .bss               zero     0x20004040     0x4  os_var.o [1]
  .bss               zero     0x20004044     0x4  os_var.o [1]
  .bss               zero     0x20004048     0x4  os_var.o [1]
  .bss               zero     0x2000404c     0x4  os_var.o [1]
  .bss               zero     0x20004050     0x4  os_var.o [1]
  .bss               zero     0x20004054     0x4  os_var.o [1]
  .bss               zero     0x20004058     0x4  tasks.o [1]
  .bss               zero     0x2000405c     0x4  tasks.o [1]
  .bss               zero     0x20004060     0x2  os_var.o [1]
  .bss               zero     0x20004062     0x2  os_var.o [1]
  .bss               zero     0x20004064     0x2  os_var.o [1]
  .bss               zero     0x20004066     0x2  os_var.o [1]
  .bss               zero     0x20004068     0x2  os_var.o [1]
  .bss               zero     0x2000406a     0x2  os_var.o [1]
  .bss               zero     0x2000406c     0x2  os_var.o [1]
  .bss               zero     0x2000406e     0x1  main.o [1]
  .bss               zero     0x2000406f     0x1  main.o [1]
  .bss               zero     0x20004070     0x1  os_var.o [1]
  .bss               zero     0x20004071     0x1  os_var.o [1]
  .bss               zero     0x20004072     0x1  os_var.o [1]
  .bss               zero     0x20004073     0x1  os_var.o [1]
  .bss               zero     0x20004074     0x1  os_var.o [1]
  .bss               zero     0x20004075     0x1  os_var.o [1]
  .bss               zero     0x20004076     0x1  os_var.o [1]
  .bss               zero     0x20004077     0x1  os_var.o [1]
  .bss               zero     0x20004078     0x1  tasks.o [1]
  .bss               zero     0x20004079     0x1  tasks.o [1]
                            - 0x2000407a  0x4002

"P2", part 3 of 3:                         0x800
  CSTACK                      0x20004080   0x800  <Block>
    CSTACK           uninit   0x20004080   0x800  <Block tail>
                            - 0x20004880   0x800


*******************************************************************************
*** INIT TABLE
***

          Address     Size
          -------     ----
Zero (__iar_zero_init3)
    1 destination range, total size 0x4002:
          0x20000078  0x4002

Copy (__iar_copy_init3)
    1 source range, total size 0x78 (100% of destination):
          0x0800b314    0x78
    1 destination range, total size 0x77:
          0x20000000    0x77



*******************************************************************************
*** MODULE SUMMARY
***

    Module                  ro code  ro data  rw data
    ------                  -------  -------  -------
D:\IAR_Workspace\STM32F103MBUS\Test\Debug\Obj: [1]
    bsp.o                     1 226
    cpu_a.o                      52
    cpu_core.o                   76                20
    lib_mem.o                   284
    lib_mem_a.o                 544
    lib_str.o                   462
    m590e.o                   2 620      394      106
    main.o                    1 708      201   11 391
    misc.o                      128
    os_cfg_app.o                172      100    3 920
    os_core.o                 2 388       20
    os_cpu_a.o                  132
    os_cpu_c.o                  472                 4
    os_flag.o                 1 706
    os_mem.o                    384
    os_msg.o                    508
    os_mutex.o                   16
    os_prio.o                   136                 4
    os_q.o                      900
    os_sem.o                    770
    os_task.o                 1 684        8
    os_tick.o                 1 048       20
    os_time.o                   492
    os_tmr.o                  1 432       24
    os_var.o                                    1 030
    serial.o                    904
    spi_flash.o               1 836
    startup_stm32f10x_md.o      408
    stm32f10x_exti.o            200
    stm32f10x_flash.o            60
    stm32f10x_gpio.o            452
    stm32f10x_it.o               54
    stm32f10x_iwdg.o             44
    stm32f10x_rcc.o             600       20       20
    stm32f10x_spi.o             164
    stm32f10x_usart.o           382
    system_stm32f10x.o          110
    tasks.o                  13 988      108       10
    timestamp.o                  60
    -------------------------------------------------
    Total:                   38 602      895   16 505

command line: [2]
    -------------------------------------------------
    Total:

dl7M_tln.a: [3]
    div.o                        14
    exit.o                        4
    low_level_init.o              4
    sprintf.o                    52
    xprintffull_nomb.o        3 462
    xsprout.o                    10
    -------------------------------------------------
    Total:                    3 546

m7M_tl.a: [4]
    DblAdd.o                    212
    DblCmpGe.o                   46
    DblCmpLe.o                   46
    DblDiv.o                    582
    DblMul.o                    418
    DblSub.o                    384
    DblToI32.o                   88
    I32ToDbl.o                   48
    xdnorm.o                     66
    xdscale.o                   268
    -------------------------------------------------
    Total:                    2 158

rt7M_tl.a: [5]
    ABImemcpy_unaligned.o       118
    I64DivMod.o                 238
    I64DivZer.o                   2
    cexit.o                      10
    cmain.o                      26
    copy_init3.o                 46
    cstartup_M.o                 12
    data_init.o                  40
    memchr.o                     88
    strchr.o                     22
    strlen.o                     54
    zero_init3.o                 34
    -------------------------------------------------
    Total:                      690

shb_l.a: [6]
    exit.o                       20
    -------------------------------------------------
    Total:                       20

    Gaps                         16
    Linker created                        37    2 048
-----------------------------------------------------
    Grand Total:             45 032      932   18 553


*******************************************************************************
*** ENTRY LIST
***

Entry                      Address   Size  Type      Object
-----                      -------   ----  ----      ------
?main                   0x0800af35         Code  Gb  cmain.o [5]
ADCPrescTable           0x2000006c    0x4  Data  Lc  stm32f10x_rcc.o [1]
APBAHBPrescTable        0x20000030   0x10  Data  Lc  stm32f10x_rcc.o [1]
BSP_CPU_ClkFreq         0x0800994b   0x10  Code  Gb  bsp.o [1]
BSP_GPIO_Init           0x08009541  0x1e6  Code  Gb  bsp.o [1]
BSP_IWDG_Init           0x08009931   0x1a  Code  Gb  bsp.o [1]
BSP_Init                0x08009491   0xb0  Code  Gb  bsp.o [1]
BSP_NVIC_Init           0x0800983f   0x6c  Code  Gb  bsp.o [1]
BSP_SPI_Init            0x080098ab   0x66  Code  Gb  bsp.o [1]
BSP_USART_Init          0x08009727  0x118  Code  Gb  bsp.o [1]
BusFault_Handler        0x0800ae9d    0x2  Code  Gb  stm32f10x_it.o [1]
CPU_CntLeadZeros        0x08006a2f         Code  Gb  cpu_a.o [1]
CPU_CntTrailZeros       0x08006a35         Code  Gb  cpu_a.o [1]
CPU_Init                0x0800995d    0xc  Code  Gb  cpu_core.o [1]
CPU_IntDis              0x08006a11         Code  Gb  cpu_a.o [1]
CPU_IntEn               0x08006a15         Code  Gb  cpu_a.o [1]
CPU_Name                0x20003fe0   0x10  Data  Gb  cpu_core.o [1]
CPU_NameClr             0x08009969   0x1a  Code  Gb  cpu_core.o [1]
CPU_NameInit            0x08009989    0x8  Code  Lc  cpu_core.o [1]
CPU_RevBits             0x08006a3f         Code  Gb  cpu_a.o [1]
CPU_SR_Restore          0x08006a21         Code  Gb  cpu_a.o [1]
CPU_SR_Save             0x08006a19         Code  Gb  cpu_a.o [1]
CPU_TS_Init             0x08009991    0xe  Code  Lc  cpu_core.o [1]
CPU_TS_TmrFreqSet       0x08009983    0x6  Code  Gb  cpu_core.o [1]
CPU_TS_TmrFreq_Hz       0x20004004    0x4  Data  Gb  cpu_core.o [1]
CPU_TS_TmrInit          0x08007a2d   0x2a  Code  Gb  timestamp.o [1]
CPU_TS_TmrRd            0x08007a57    0x6  Code  Gb  timestamp.o [1]
CPU_WaitForExcept       0x08006a2b         Code  Gb  cpu_a.o [1]
CPU_WaitForInt          0x08006a27         Code  Gb  cpu_a.o [1]
CSTACK$$Base            0x20004080          --   Gb  - Linker created -
CSTACK$$Limit           0x20004880          --   Gb  - Linker created -
DebugMon_Handler        0x0800aea3    0x2  Code  Gb  stm32f10x_it.o [1]
Device_Read             0x0800507d   0x34  Code  Gb  serial.o [1]
EXTI15_10_IRQHandler    0x0800aec5    0x8  Code  Gb  stm32f10x_it.o [1]
EXTI_ClearITPendingBit  0x08007e91    0x6  Code  Gb  stm32f10x_exti.o [1]
EXTI_GetITStatus        0x08007e6d   0x24  Code  Gb  stm32f10x_exti.o [1]
EXTI_Init               0x08007de5   0x88  Code  Gb  stm32f10x_exti.o [1]
FLAG_Event              0x20003f94   0x1c  Data  Gb  main.o [1]
FLASH_PrefetchBufferCmd
                        0x0800a5d5   0x20  Code  Gb  stm32f10x_flash.o [1]
FLASH_SetLatency        0x0800a5bd   0x18  Code  Gb  stm32f10x_flash.o [1]
GPIO_EXTILineConfig     0x08005ba1   0x50  Code  Gb  stm32f10x_gpio.o [1]
GPIO_Init               0x08005a39   0xc8  Code  Gb  stm32f10x_gpio.o [1]
GPIO_PinRemapConfig     0x08005b23   0x7e  Code  Gb  stm32f10x_gpio.o [1]
GPIO_ReadInputDataBit   0x08005b01   0x16  Code  Gb  stm32f10x_gpio.o [1]
GPIO_ResetBits          0x08005b1d    0x6  Code  Gb  stm32f10x_gpio.o [1]
GPIO_SetBits            0x08005b17    0x6  Code  Gb  stm32f10x_gpio.o [1]
GetFlash                0x08005fe7   0xc0  Code  Gb  spi_flash.o [1]
HardFault_Handler       0x0800ae99    0x2  Code  Gb  stm32f10x_it.o [1]
IWDG_Enable             0x0800a693    0xa  Code  Gb  stm32f10x_iwdg.o [1]
IWDG_ReloadCounter      0x0800a689    0xa  Code  Gb  stm32f10x_iwdg.o [1]
IWDG_SetPrescaler       0x0800a681    0x8  Code  Gb  stm32f10x_iwdg.o [1]
IWDG_WriteAccessCmd     0x0800a679    0x8  Code  Gb  stm32f10x_iwdg.o [1]
M590E_Cmd               0x08004349  0x112  Code  Gb  m590e.o [1]
M590E_ReadAT_100        0x0800445b   0x60  Code  Gb  m590e.o [1]
M590E_ReadAT_2s         0x080044bb   0x60  Code  Gb  m590e.o [1]
MEM_Buf                 0x20003fb0   0x18  Data  Gb  main.o [1]
MEM_ISR                 0x20003fc8   0x18  Data  Gb  main.o [1]
MemManage_Handler       0x0800ae9b    0x2  Code  Gb  stm32f10x_it.o [1]
Mem_Clr                 0x08003ea9    0xc  Code  Gb  lib_mem.o [1]
Mem_Cmp                 0x08003f0f   0xb6  Code  Gb  lib_mem.o [1]
Mem_Copy                0x0800562d         Code  Gb  lib_mem_a.o [1]
Mem_Set                 0x08003eb5   0x5a  Code  Gb  lib_mem.o [1]
NMI_Handler             0x0800ae97    0x2  Code  Gb  stm32f10x_it.o [1]
NVIC_Init               0x0800a603   0x62  Code  Gb  misc.o [1]
NVIC_PriorityGroupConfig
                        0x0800a5f9    0xa  Code  Gb  misc.o [1]
OSCfg_DataSizeRAM       0x0800b274    0x4  Data  Gb  os_cfg_app.o [1]
OSCfg_ISRStk            0x20002ab8  0x200  Data  Gb  os_cfg_app.o [1]
OSCfg_ISRStkBasePtr     0x0800b22c    0x4  Data  Gb  os_cfg_app.o [1]
OSCfg_ISRStkSize        0x0800b230    0x4  Data  Gb  os_cfg_app.o [1]
OSCfg_ISRStkSizeRAM     0x0800b234    0x4  Data  Gb  os_cfg_app.o [1]
OSCfg_IdleTaskStk       0x200028b8  0x200  Data  Gb  os_cfg_app.o [1]
OSCfg_IdleTaskStkBasePtr
                        0x0800b21c    0x4  Data  Gb  os_cfg_app.o [1]
OSCfg_IdleTaskStkLimit  0x0800b220    0x4  Data  Gb  os_cfg_app.o [1]
OSCfg_IdleTaskStkSize   0x0800b224    0x4  Data  Gb  os_cfg_app.o [1]
OSCfg_IdleTaskStkSizeRAM
                        0x0800b228    0x4  Data  Gb  os_cfg_app.o [1]
OSCfg_Init              0x08009361   0xac  Code  Gb  os_cfg_app.o [1]
OSCfg_MsgPool           0x20000078  0x640  Data  Gb  os_cfg_app.o [1]
OSCfg_MsgPoolBasePtr    0x0800b23c    0x4  Data  Gb  os_cfg_app.o [1]
OSCfg_MsgPoolSize       0x08007de2    0x2  Data  Gb  os_cfg_app.o [1]
OSCfg_MsgPoolSizeRAM    0x0800b238    0x4  Data  Gb  os_cfg_app.o [1]
OSCfg_StkSizeMin        0x0800b240    0x4  Data  Gb  os_cfg_app.o [1]
OSCfg_TickRate_Hz       0x0800b244    0x4  Data  Gb  os_cfg_app.o [1]
OSCfg_TickTaskPrio      0x08009c16    0x1  Data  Gb  os_cfg_app.o [1]
OSCfg_TickTaskStk       0x20002cb8  0x200  Data  Gb  os_cfg_app.o [1]
OSCfg_TickTaskStkBasePtr
                        0x0800b248    0x4  Data  Gb  os_cfg_app.o [1]
OSCfg_TickTaskStkLimit  0x0800b24c    0x4  Data  Gb  os_cfg_app.o [1]
OSCfg_TickTaskStkSize   0x0800b250    0x4  Data  Gb  os_cfg_app.o [1]
OSCfg_TickTaskStkSizeRAM
                        0x0800b254    0x4  Data  Gb  os_cfg_app.o [1]
OSCfg_TickWheel         0x20003b5c   0x88  Data  Gb  os_cfg_app.o [1]
OSCfg_TickWheelSize     0x080092c6    0x2  Data  Gb  os_cfg_app.o [1]
OSCfg_TickWheelSizeRAM  0x0800b258    0x4  Data  Gb  os_cfg_app.o [1]
OSCfg_TmrTaskPrio       0x08009c17    0x1  Data  Gb  os_cfg_app.o [1]
OSCfg_TmrTaskRate_Hz    0x0800b25c    0x4  Data  Gb  os_cfg_app.o [1]
OSCfg_TmrTaskStk        0x20002eb8  0x200  Data  Gb  os_cfg_app.o [1]
OSCfg_TmrTaskStkBasePtr
                        0x0800b260    0x4  Data  Gb  os_cfg_app.o [1]
OSCfg_TmrTaskStkLimit   0x0800b264    0x4  Data  Gb  os_cfg_app.o [1]
OSCfg_TmrTaskStkSize    0x0800b268    0x4  Data  Gb  os_cfg_app.o [1]
OSCfg_TmrTaskStkSizeRAM
                        0x0800b26c    0x4  Data  Gb  os_cfg_app.o [1]
OSCfg_TmrWheel          0x20003be4   0x88  Data  Gb  os_cfg_app.o [1]
OSCfg_TmrWheelSize      0x0800995a    0x2  Data  Gb  os_cfg_app.o [1]
OSCfg_TmrWheelSizeRAM   0x0800b270    0x4  Data  Gb  os_cfg_app.o [1]
OSFlagCreate            0x0800635d   0x66  Code  Gb  os_flag.o [1]
OSFlagPend              0x080063c3  0x40c  Code  Gb  os_flag.o [1]
OSFlagPost              0x080067cf   0x5e  Code  Gb  os_flag.o [1]
OSFlagQty               0x20004060    0x2  Data  Gb  os_var.o [1]
OSIdleTaskCtr           0x2000402c    0x4  Data  Gb  os_var.o [1]
OSIdleTaskHook          0x080082c5   0x12  Code  Gb  os_cpu_c.o [1]
OSIdleTaskTCB           0x20003940   0xb4  Data  Gb  os_var.o [1]
OSInit                  0x08006a45  0x150  Code  Gb  os_core.o [1]
OSInitHook              0x080082d7   0x14  Code  Gb  os_cpu_c.o [1]
OSIntExit               0x08006b95   0xc8  Code  Gb  os_core.o [1]
OSIntNestingCtr         0x20004070    0x1  Data  Gb  os_var.o [1]
OSMemCreate             0x08003d29   0xd0  Code  Gb  os_mem.o [1]
OSMemGet                0x08003df9   0x46  Code  Gb  os_mem.o [1]
OSMemPut                0x08003e3f   0x50  Code  Gb  os_mem.o [1]
OSMemQty                0x20004062    0x2  Data  Gb  os_var.o [1]
OSMsgPool               0x20003ff0    0xc  Data  Gb  os_var.o [1]
OSMutexQty              0x20004064    0x2  Data  Gb  os_var.o [1]
OSPrioCur               0x20004072    0x1  Data  Gb  os_var.o [1]
OSPrioHighRdy           0x20004073    0x1  Data  Gb  os_var.o [1]
OSPrioSaved             0x20004074    0x1  Data  Gb  os_var.o [1]
OSPrioTbl               0x2000400c    0x4  Data  Gb  os_prio.o [1]
OSQCreate               0x08003fc5   0x7c  Code  Gb  os_q.o [1]
OSQPend                 0x08004041  0x1be  Code  Gb  os_q.o [1]
OSQPost                 0x080041ff   0x84  Code  Gb  os_q.o [1]
OSQQty                  0x20004066    0x2  Data  Gb  os_var.o [1]
OSRdyList               0x200030b8  0x180  Data  Gb  os_var.o [1]
OSRunning               0x20004071    0x1  Data  Gb  os_var.o [1]
OSSched                 0x08006c5d   0x8e  Code  Gb  os_core.o [1]
OSSchedLock             0x08006ceb   0x58  Code  Gb  os_core.o [1]
OSSchedLockNestingCtr   0x20004075    0x1  Data  Gb  os_var.o [1]
OSSchedRoundRobinDfltTimeQuanta
                        0x20004030    0x4  Data  Gb  os_var.o [1]
OSSchedRoundRobinEn     0x20004076    0x1  Data  Gb  os_var.o [1]
OSSchedUnlock           0x08006d43   0x72  Code  Gb  os_core.o [1]
OSSemCreate             0x0800510d   0x66  Code  Gb  os_sem.o [1]
OSSemPend               0x08005173  0x174  Code  Gb  os_sem.o [1]
OSSemPost               0x080052e7   0x60  Code  Gb  os_sem.o [1]
OSSemQty                0x20004068    0x2  Data  Gb  os_var.o [1]
OSStart                 0x08006db5   0x64  Code  Gb  os_core.o [1]
OSStartHighRdy          0x0800940d         Code  Gb  os_cpu_a.o [1]
OSTCBCurPtr             0x20004050    0x4  Data  Gb  os_var.o [1]
OSTCBHighRdyPtr         0x20004054    0x4  Data  Gb  os_var.o [1]
OSTaskCreate            0x08007399  0x176  Code  Gb  os_task.o [1]
OSTaskCreateHook        0x080082eb   0x12  Code  Gb  os_cpu_c.o [1]
OSTaskCtxSwCtr          0x20004034    0x4  Data  Gb  os_var.o [1]
OSTaskDel               0x0800750f   0xea  Code  Gb  os_task.o [1]
OSTaskDelHook           0x080082fd   0x12  Code  Gb  os_cpu_c.o [1]
OSTaskQty               0x2000406a    0x2  Data  Gb  os_var.o [1]
OSTaskRegNextAvailID    0x20004077    0x1  Data  Gb  os_var.o [1]
OSTaskReturnHook        0x0800830f   0x12  Code  Gb  os_cpu_c.o [1]
OSTaskSemPend           0x080075f9  0x1cc  Code  Gb  os_task.o [1]
OSTaskSemPost           0x080077c5   0x34  Code  Gb  os_task.o [1]
OSTaskStkInit           0x08008321   0x80  Code  Gb  os_cpu_c.o [1]
OSTaskSwHook            0x080083a1   0x56  Code  Gb  os_cpu_c.o [1]
OSTickCtr               0x20004038    0x4  Data  Gb  os_var.o [1]
OSTickTaskTCB           0x200039f4   0xb4  Data  Gb  os_var.o [1]
OSTickTaskTimeMax       0x2000403c    0x4  Data  Gb  os_var.o [1]
OSTimeDlyHMSM           0x0800584d  0x178  Code  Gb  os_time.o [1]
OSTimeTick              0x080059c5   0x4a  Code  Gb  os_time.o [1]
OSTimeTickHook          0x080083f7   0x12  Code  Gb  os_cpu_c.o [1]
OSTmrCreate             0x08003791   0xb0  Code  Gb  os_tmr.o [1]
OSTmrQty                0x2000406c    0x2  Data  Gb  os_var.o [1]
OSTmrStart              0x08003841   0xaa  Code  Gb  os_tmr.o [1]
OSTmrStateGet           0x080038eb   0x66  Code  Gb  os_tmr.o [1]
OSTmrStop               0x08003951   0xf0  Code  Gb  os_tmr.o [1]
OSTmrTaskTCB            0x20003aa8   0xb4  Data  Gb  os_var.o [1]
OSTmrTaskTimeMax        0x20004040    0x4  Data  Gb  os_var.o [1]
OSTmrTickCtr            0x20004044    0x4  Data  Gb  os_var.o [1]
OSTmrUpdateCnt          0x20004048    0x4  Data  Gb  os_var.o [1]
OSTmrUpdateCtr          0x2000404c    0x4  Data  Gb  os_var.o [1]
OS_AppIdleTaskHookPtr   0x2000401c    0x4  Data  Gb  os_var.o [1]
OS_AppStatTaskHookPtr   0x20004020    0x4  Data  Gb  os_var.o [1]
OS_AppTaskCreateHookPtr
                        0x20004010    0x4  Data  Gb  os_var.o [1]
OS_AppTaskDelHookPtr    0x20004014    0x4  Data  Gb  os_var.o [1]
OS_AppTaskReturnHookPtr
                        0x20004018    0x4  Data  Gb  os_var.o [1]
OS_AppTaskSwHookPtr     0x20004024    0x4  Data  Gb  os_var.o [1]
OS_AppTimeTickHookPtr   0x20004028    0x4  Data  Gb  os_var.o [1]
OS_CPU_ExceptStkBase    0x20004008    0x4  Data  Gb  os_cpu_c.o [1]
OS_CPU_SysTickHandler   0x08008409   0x24  Code  Gb  os_cpu_c.o [1]
OS_CPU_SysTickInit      0x0800842d   0x2c  Code  Gb  os_cpu_c.o [1]
OS_FlagBlock            0x0800682d   0x26  Code  Gb  os_flag.o [1]
OS_FlagInit             0x08006853    0xc  Code  Gb  os_flag.o [1]
OS_FlagPost             0x08006875  0x13c  Code  Gb  os_flag.o [1]
OS_FlagTaskRdy          0x080069b1   0x56  Code  Gb  os_flag.o [1]
OS_IdleTask             0x08006e19   0x24  Code  Gb  os_core.o [1]
OS_IdleTaskInit         0x08006e3d   0x50  Code  Gb  os_core.o [1]
OS_MemInit              0x08003e8f    0xc  Code  Gb  os_mem.o [1]
OS_MsgPoolInit          0x08007a69   0x86  Code  Gb  os_msg.o [1]
OS_MsgQFreeAll          0x08007aef   0x44  Code  Gb  os_msg.o [1]
OS_MsgQGet              0x08007b47   0x70  Code  Gb  os_msg.o [1]
OS_MsgQInit             0x08007b33   0x14  Code  Gb  os_msg.o [1]
OS_MsgQPut              0x08007bb7   0xa2  Code  Gb  os_msg.o [1]
OS_MutexInit            0x08009351    0xc  Code  Gb  os_mutex.o [1]
OS_Pend                 0x08006e8d   0x60  Code  Gb  os_core.o [1]
OS_PendDataInit         0x08006eed   0x34  Code  Gb  os_core.o [1]
OS_PendListInit         0x08006f21    0xe  Code  Gb  os_core.o [1]
OS_PendListInsertPrio   0x08006f2f   0x6e  Code  Gb  os_core.o [1]
OS_PendListRemove       0x08006f9d   0x28  Code  Gb  os_core.o [1]
OS_PendListRemove1      0x08006fc5   0x48  Code  Gb  os_core.o [1]
OS_Post                 0x0800700d   0xb0  Code  Gb  os_core.o [1]
OS_Post1                0x080070bd   0x26  Code  Gb  os_core.o [1]
OS_PrioGetHighest       0x080092dd   0x20  Code  Gb  os_prio.o [1]
OS_PrioInit             0x080092c9   0x14  Code  Gb  os_prio.o [1]
OS_PrioInsert           0x080092fd   0x26  Code  Gb  os_prio.o [1]
OS_PrioRemove           0x08009323   0x28  Code  Gb  os_prio.o [1]
OS_QInit                0x08004283    0xc  Code  Gb  os_q.o [1]
OS_QPost                0x080042a5   0xa4  Code  Gb  os_q.o [1]
OS_RdyListInit          0x080070e3   0x24  Code  Gb  os_core.o [1]
OS_RdyListInsert        0x08007107   0x28  Code  Gb  os_core.o [1]
OS_RdyListInsertHead    0x0800712f   0x3a  Code  Gb  os_core.o [1]
OS_RdyListInsertTail    0x08007169   0x38  Code  Gb  os_core.o [1]
OS_RdyListMoveHeadToTail
                        0x080071a1   0x40  Code  Gb  os_core.o [1]
OS_RdyListRemove        0x080071e1   0x5c  Code  Gb  os_core.o [1]
OS_SchedRoundRobin      0x0800723d   0x8a  Code  Gb  os_core.o [1]
OS_SemInit              0x08005347    0xc  Code  Gb  os_sem.o [1]
OS_SemPost              0x08005369   0xa6  Code  Gb  os_sem.o [1]
OS_TaskBlock            0x08007345   0x3a  Code  Gb  os_core.o [1]
OS_TaskInit             0x080077f9   0x16  Code  Gb  os_task.o [1]
OS_TaskInitTCB          0x0800780f  0x106  Code  Gb  os_task.o [1]
OS_TaskRdy              0x0800737f   0x1a  Code  Gb  os_core.o [1]
OS_TaskReturn           0x08007921   0x14  Code  Gb  os_task.o [1]
OS_TaskSemPost          0x08007941   0xd4  Code  Gb  os_task.o [1]
OS_TickListInit         0x08007f73   0x2a  Code  Gb  os_tick.o [1]
OS_TickListInsert       0x08007f9d  0x11c  Code  Gb  os_tick.o [1]
OS_TickListRemove       0x080080b9   0x42  Code  Gb  os_tick.o [1]
OS_TickListUpdate       0x080080fb  0x190  Code  Gb  os_tick.o [1]
OS_TickTask             0x08007ead   0x28  Code  Gb  os_tick.o [1]
OS_TickTaskInit         0x08007ed5   0x9e  Code  Gb  os_tick.o [1]
OS_TmrInit              0x08003a41   0xd4  Code  Gb  os_tmr.o [1]
OS_TmrLink              0x08003b15   0xd0  Code  Gb  os_tmr.o [1]
OS_TmrTask              0x08003c35   0xaa  Code  Gb  os_tmr.o [1]
OS_TmrUnlink            0x08003be5   0x4c  Code  Gb  os_tmr.o [1]
ObjCreate               0x0800aa8d  0x248  Code  Gb  main.o [1]
OverLoad                0x080050b1   0x24  Code  Gb  serial.o [1]
PendSV_Handler          0x0800942b         Code  Gb  os_cpu_a.o [1]
PutFlash                0x080060a7   0xcc  Code  Gb  spi_flash.o [1]
Q_Config                0x20003e50   0x24  Data  Gb  main.o [1]
Q_Deal                  0x20003e74   0x24  Data  Gb  main.o [1]
Q_Read                  0x20003e08   0x24  Data  Gb  main.o [1]
Q_ReadData              0x20003e2c   0x24  Data  Gb  main.o [1]
Q_Server                0x20003dc0   0x24  Data  Gb  main.o [1]
Q_Slave                 0x20003de4   0x24  Data  Gb  main.o [1]
RCC_APB1PeriphClockCmd  0x08009b61   0x20  Code  Gb  stm32f10x_rcc.o [1]
RCC_APB2PeriphClockCmd  0x08009b41   0x20  Code  Gb  stm32f10x_rcc.o [1]
RCC_DeInit              0x080099a9   0x60  Code  Gb  stm32f10x_rcc.o [1]
RCC_GetClocksFreq       0x08009a81   0xc0  Code  Gb  stm32f10x_rcc.o [1]
RCC_GetFlagStatus       0x08009b81   0x44  Code  Gb  stm32f10x_rcc.o [1]
RCC_HCLKConfig          0x08009a3b   0x14  Code  Gb  stm32f10x_rcc.o [1]
RCC_LSICmd              0x08009a79    0x8  Code  Gb  stm32f10x_rcc.o [1]
RCC_PCLK1Config         0x08009a4f   0x14  Code  Gb  stm32f10x_rcc.o [1]
RCC_PCLK2Config         0x08009a63   0x16  Code  Gb  stm32f10x_rcc.o [1]
RCC_PLLCmd              0x08009a1f    0x8  Code  Gb  stm32f10x_rcc.o [1]
RCC_PLLConfig           0x08009a09   0x16  Code  Gb  stm32f10x_rcc.o [1]
RCC_SYSCLKConfig        0x08009a27   0x14  Code  Gb  stm32f10x_rcc.o [1]
Region$$Table$$Base     0x0800aef4          --   Gb  - Linker created -
Region$$Table$$Limit    0x0800af18          --   Gb  - Linker created -
SEM_Connected           0x20003f5c   0x1c  Data  Gb  main.o [1]
SEM_HeartBeat           0x20003eec   0x1c  Data  Gb  main.o [1]
SEM_Restart             0x20003f08   0x1c  Data  Gb  main.o [1]
SEM_Send                0x20003f24   0x1c  Data  Gb  main.o [1]
SEM_SendOver            0x20003f40   0x1c  Data  Gb  main.o [1]
SEM_Send_Online         0x20003f78   0x1c  Data  Gb  main.o [1]
SEM_ServerTX            0x20003e98   0x1c  Data  Gb  main.o [1]
SEM_Slave_485TX         0x20003eb4   0x1c  Data  Gb  main.o [1]
SEM_Slave_mbusTX        0x20003ed0   0x1c  Data  Gb  main.o [1]
SPI_Cmd                 0x080084dd   0x1c  Code  Gb  stm32f10x_spi.o [1]
SPI_I2S_GetFlagStatus   0x0800852d   0x14  Code  Gb  stm32f10x_spi.o [1]
SPI_I2S_ITConfig        0x080084f9   0x2c  Code  Gb  stm32f10x_spi.o [1]
SPI_I2S_ReceiveData     0x08008529    0x4  Code  Gb  stm32f10x_spi.o [1]
SPI_I2S_SendData        0x08008525    0x4  Code  Gb  stm32f10x_spi.o [1]
SPI_Init                0x0800849d   0x40  Code  Gb  stm32f10x_spi.o [1]
STK_Config              0x200006b8  0x600  Data  Gb  main.o [1]
STK_Connect             0x200020b8  0x200  Data  Gb  main.o [1]
STK_DealServer          0x200024b8  0x200  Data  Gb  main.o [1]
STK_HeartBeat           0x200022b8  0x200  Data  Gb  main.o [1]
STK_LED1                0x20001ab8  0x200  Data  Gb  main.o [1]
STK_OverLoad            0x200026b8  0x200  Data  Gb  main.o [1]
STK_Read                0x20000cb8  0x600  Data  Gb  main.o [1]
STK_Server              0x20001cb8  0x200  Data  Gb  main.o [1]
STK_Slave               0x20001eb8  0x200  Data  Gb  main.o [1]
STK_Start               0x200018b8  0x200  Data  Gb  main.o [1]
SVC_Handler             0x0800aea1    0x2  Code  Gb  stm32f10x_it.o [1]
Server_Post2Queue       0x08005053   0x2a  Code  Gb  serial.o [1]
Server_Write            0x08004f99   0x5c  Code  Gb  serial.o [1]
Server_WriteStr         0x08004ff5   0x5e  Code  Gb  serial.o [1]
SetSysClock             0x0800ae95    0x2  Code  Lc  system_stm32f10x.o [1]
Slave_Write             0x08004ec3   0xd6  Code  Gb  serial.o [1]
Str_Cat                 0x08005457    0xc  Code  Gb  lib_str.o [1]
Str_Cat_N               0x08005463   0x62  Code  Gb  lib_str.o [1]
Str_Cmp_N               0x080054c5   0x94  Code  Gb  lib_str.o [1]
Str_Len_N               0x0800543d   0x1a  Code  Gb  lib_str.o [1]
Str_Str                 0x08005559    0xc  Code  Gb  lib_str.o [1]
Str_Str_N               0x08005565   0xa6  Code  Gb  lib_str.o [1]
SysTick_Handler         0x0800aea5    0x8  Code  Gb  stm32f10x_it.o [1]
SystemInit              0x0800ae29   0x54  Code  Gb  system_stm32f10x.o [1]
TCB_Config              0x200035bc   0xb4  Data  Gb  main.o [1]
TCB_Connect             0x20003508   0xb4  Data  Gb  main.o [1]
TCB_DealServer          0x200037d8   0xb4  Data  Gb  main.o [1]
TCB_HeartBeat           0x20003724   0xb4  Data  Gb  main.o [1]
TCB_LED1                0x200032ec   0xb4  Data  Gb  main.o [1]
TCB_OverLoad            0x2000388c   0xb4  Data  Gb  main.o [1]
TCB_Read                0x20003670   0xb4  Data  Gb  main.o [1]
TCB_Server              0x200033a0   0xb4  Data  Gb  main.o [1]
TCB_Slave               0x20003454   0xb4  Data  Gb  main.o [1]
TCB_Start               0x20003238   0xb4  Data  Gb  main.o [1]
TMR_Server              0x20003ce4   0x2c  Data  Gb  main.o [1]
TMR_Server_100          0x20003d3c   0x2c  Data  Gb  main.o [1]
TMR_Server_200          0x20003d68   0x2c  Data  Gb  main.o [1]
TMR_Server_2s           0x20003d10   0x2c  Data  Gb  main.o [1]
TMR_Slave               0x20003d94   0x2c  Data  Gb  main.o [1]
TaskCreate              0x0800a8a1  0x1ec  Code  Gb  main.o [1]
TaskStart               0x0800a7d1   0xd0  Code  Gb  main.o [1]
Task_Config             0x08001e95   0x52  Code  Gb  tasks.o [1]
Task_Connect            0x080007b5   0x5a  Code  Gb  tasks.o [1]
Task_DealServer         0x0800067b   0xf8  Code  Gb  tasks.o [1]
Task_HeartBeat          0x08000815  0x108  Code  Gb  tasks.o [1]
Task_LED1               0x08002b2f   0x94  Code  Gb  tasks.o [1]
Task_OverLoad           0x08003701   0x52  Code  Gb  tasks.o [1]
Task_Read               0x0800091d   0x82  Code  Gb  tasks.o [1]
Task_Server             0x0800049d  0x1dc  Code  Gb  tasks.o [1]
Task_Slave              0x080000ed  0x378  Code  Gb  tasks.o [1]
Tmr_ServerCallBack      0x08000679    0x2  Code  Gb  tasks.o [1]
Tmr_SlaveCallBack       0x08000465   0x16  Code  Gb  tasks.o [1]
USART1_Handler          0x08004df5   0x66  Code  Gb  serial.o [1]
USART1_IRQHandler       0x0800aead    0x8  Code  Gb  stm32f10x_it.o [1]
USART2_Handler          0x08004d85   0x70  Code  Gb  serial.o [1]
USART2_IRQHandler       0x0800aeb5    0x8  Code  Gb  stm32f10x_it.o [1]
USART3_Handler          0x08004e5d   0x66  Code  Gb  serial.o [1]
USART3_IRQHandler       0x0800aebd    0x8  Code  Gb  stm32f10x_it.o [1]
USART_ClearITPendingBit
                        0x08007dc1   0x22  Code  Gb  stm32f10x_usart.o [1]
USART_Cmd               0x08007d29   0x1c  Code  Gb  stm32f10x_usart.o [1]
USART_GetFlagStatus     0x08007da7   0x1a  Code  Gb  stm32f10x_usart.o [1]
USART_ITConfig          0x08007d45   0x52  Code  Gb  stm32f10x_usart.o [1]
USART_Init              0x08007c65   0xbe  Code  Gb  stm32f10x_usart.o [1]
USART_ReceiveData       0x08007d9f    0x8  Code  Gb  stm32f10x_usart.o [1]
USART_SendData          0x08007d97    0x8  Code  Gb  stm32f10x_usart.o [1]
UsageFault_Handler      0x0800ae9f    0x2  Code  Gb  stm32f10x_it.o [1]
_GenldFullNoMb          0x0800901d  0x262  Code  Lc  xprintffull_nomb.o [3]
_LdtobFullNoMb          0x08008c31  0x3e6  Code  Lc  xprintffull_nomb.o [3]
_LitobFullNoMb          0x08008b29  0x106  Code  Lc  xprintffull_nomb.o [3]
_PrintfFullNoMb         0x08008541  0x5e2  Code  Gb  xprintffull_nomb.o [3]
_PutcharsFullNoMb       0x0800927f   0x2e  Code  Lc  xprintffull_nomb.o [3]
_SProut                 0x08006a07    0xa  Code  Gb  xsprout.o [3]
__aeabi_cdcmple         0x08009e51         Code  Gb  DblCmpLe.o [4]
__aeabi_cdrcmple        0x08009e81         Code  Gb  DblCmpGe.o [4]
__aeabi_d2iz            0x08009fbd         Code  Gb  DblToI32.o [4]
__aeabi_d2uiz           0x08009fe9         Code  Gb  DblToI32.o [4]
__aeabi_ddiv            0x0800a369         Code  Gb  DblDiv.o [4]
__aeabi_dmul            0x0800a1c5         Code  Gb  DblMul.o [4]
__aeabi_dsub            0x0800a045         Code  Gb  DblSub.o [4]
__aeabi_i2d             0x0800a015         Code  Gb  I32ToDbl.o [4]
__aeabi_ldiv0           0x0800a6a5         Code  Gb  I64DivZer.o [5]
__aeabi_ui2d            0x0800a029         Code  Gb  I32ToDbl.o [4]
__aeabi_uldivmod        0x08009ca9         Code  Gb  I64DivMod.o [5]
__cmain                 0x0800af35         Code  Gb  cmain.o [5]
__exit                  0x0800af65   0x14  Code  Gb  exit.o [6]
__iar_Dnorm             0x08009e0f   0x42  Code  Gb  xdnorm.o [4]
__iar_Dscale            0x08009eb1  0x10c  Code  Gb  xdscale.o [4]
__iar_Memchr            0x08009c51         Code  Gb  memchr.o [5]
__iar_Strchr            0x08009c01         Code  Gb  strchr.o [5]
__iar_copy_init3        0x0800540f   0x2e  Code  Gb  copy_init3.o [5]
__iar_d2uiz             0x08009ff5         Code  Gb  DblToI32.o [4]
__iar_dadd              0x0800a6a9         Code  Gb  DblAdd.o [4]
__iar_data_init3        0x0800aecd   0x28  Code  Gb  data_init.o [5]
__iar_dsub              0x0800a059         Code  Gb  DblSub.o [4]
__iar_dsubStart         0x0800a06b         Code  Gb  DblSub.o [4]
__iar_program_start     0x0800b139         Code  Gb  cstartup_M.o [5]
__iar_ui2d              0x0800a02d         Code  Gb  I32ToDbl.o [4]
__iar_unaligned___aeabi_memcpy
                        0x08009d99         Code  Gb  ABImemcpy_unaligned.o [5]
__iar_unaligned___aeabi_memcpy4
                        0x08009db9         Code  Gb  ABImemcpy_unaligned.o [5]
__iar_unaligned___aeabi_memcpy8
                        0x08009db9         Code  Gb  ABImemcpy_unaligned.o [5]
__iar_zero_init3        0x0800560b   0x22  Code  Gb  zero_init3.o [5]
__low_level_init        0x0800af4f    0x4  Code  Gb  low_level_init.o [3]
__vector_table          0x08000000         Data  Gb  startup_stm32f10x_md.o [1]
_call_main              0x0800af41         Code  Gb  cmain.o [5]
_exit                   0x0800af59         Code  Gb  cexit.o [5]
_main                   0x0800af4b         Code  Gb  cmain.o [5]
ack_query_addr          0x080034ad   0xb0  Code  Gb  tasks.o [1]
ack_query_cjq           0x08002d2d  0x146  Code  Gb  tasks.o [1]
ack_query_ip            0x08003565   0xe0  Code  Gb  tasks.o [1]
ack_query_mbus          0x08003645   0xbc  Code  Gb  tasks.o [1]
ack_query_meter         0x08002e81  0x626  Code  Gb  tasks.o [1]
add_cjq                 0x08002751   0xfc  Code  Gb  tasks.o [1]
add_meter               0x080022c5  0x172  Code  Gb  tasks.o [1]
apn                     0x20000040    0xc  Data  Gb  m590e.o [1]
at_ccid                 0x080045a1   0x74  Code  Gb  m590e.o [1]
at_cgdcont              0x080047bd   0x7a  Code  Gb  m590e.o [1]
at_creg                 0x080046ad   0x9e  Code  Gb  m590e.o [1]
at_csq                  0x08004615   0x98  Code  Gb  m590e.o [1]
at_dns                  0x08004a51   0xa4  Code  Gb  m590e.o [1]
at_tcpsetup             0x08004afd   0x76  Code  Gb  m590e.o [1]
at_xgauth               0x0800483d   0x82  Code  Gb  m590e.o [1]
at_xiic                 0x0800494f   0x72  Code  Gb  m590e.o [1]
at_xisp                 0x0800474b   0x72  Code  Gb  m590e.o [1]
ate                     0x0800452f   0x72  Code  Gb  m590e.o [1]
buf                     0x20004058    0x4  Data  Gb  tasks.o [1]
buf_                    0x2000405c    0x4  Data  Gb  tasks.o [1]
change_connect          0x08004cb7   0x18  Code  Gb  m590e.o [1]
check_cgatt             0x080048bf   0x90  Code  Gb  m590e.o [1]
check_cs                0x0800047b   0x20  Code  Gb  tasks.o [1]
check_frame             0x08000773   0x42  Code  Gb  tasks.o [1]
check_str               0x0800451b   0x14  Code  Gb  m590e.o [1]
check_xiic              0x080049c1   0x90  Code  Gb  m590e.o [1]
cjq_close               0x08001979  0x186  Code  Gb  tasks.o [1]
cjq_open                0x080017a9  0x1c6  Code  Gb  tasks.o [1]
connect                 0x08004b73   0xa6  Code  Gb  m590e.o [1]
connectstate            0x2000406e    0x1  Data  Gb  main.o [1]
delete_cjq              0x0800284d  0x28a  Code  Gb  tasks.o [1]
delete_meter            0x0800243d  0x2b0  Code  Gb  tasks.o [1]
device_ack              0x08002bc9   0x9c  Code  Gb  tasks.o [1]
device_nack             0x08002c65   0xa6  Code  Gb  tasks.o [1]
deviceaddr              0x20003ffc    0x8  Data  Gb  m590e.o [1]
div                     0x0800a5af    0xe  Code  Gb  div.o [3]
dns                     0x20000000   0x1c  Data  Gb  m590e.o [1]
exit                    0x0800af53    0x4  Code  Gb  exit.o [3]
ip                      0x2000001c   0x14  Data  Gb  m590e.o [1]
ip1                     0x20000072    0x1  Data  Gb  m590e.o [1]
ip2                     0x20000073    0x1  Data  Gb  m590e.o [1]
ip3                     0x20000074    0x1  Data  Gb  m590e.o [1]
ip4                     0x20000075    0x1  Data  Gb  m590e.o [1]
main                    0x0800a77d   0x52  Code  Gb  main.o [1]
mbus_power              0x0800099f   0x3a  Code  Gb  tasks.o [1]
mem_buf                 0x200012b8  0x600  Data  Gb  main.o [1]
mem_isr                 0x20003c6c   0x78  Data  Gb  main.o [1]
memchr                  0x08009c51         Code  Gb  memchr.o [5]
meter_close             0x08001ccd  0x1c8  Code  Gb  tasks.o [1]
meter_control           0x080015e5  0x1b0  Code  Gb  tasks.o [1]
meter_open              0x08001b05  0x1c0  Code  Gb  tasks.o [1]
meter_read              0x08000ae3  0x2e2  Code  Gb  tasks.o [1]
meter_read_single       0x08000de9  0x1da  Code  Gb  tasks.o [1]
meter_send              0x08001009  0x5d4  Code  Gb  tasks.o [1]
param_conf              0x08006173  0x116  Code  Gb  spi_flash.o [1]
param_config            0x08001ef5  0x354  Code  Gb  tasks.o [1]
param_query             0x08002add   0x52  Code  Gb  tasks.o [1]
password                0x20000058    0xc  Data  Gb  m590e.o [1]
port                    0x20000064    0x8  Data  Gb  m590e.o [1]
port_                   0x20000070    0x2  Data  Gb  m590e.o [1]
q_server_pending        0x20004079    0x1  Data  Gb  tasks.o [1]
reading                 0x2000406f    0x1  Data  Gb  main.o [1]
relay_1                 0x08000a13   0x34  Code  Gb  tasks.o [1]
relay_2                 0x08000a47   0x34  Code  Gb  tasks.o [1]
relay_3                 0x08000a7b   0x34  Code  Gb  tasks.o [1]
relay_4                 0x08000aaf   0x34  Code  Gb  tasks.o [1]
relay_485               0x080009dd   0x36  Code  Gb  tasks.o [1]
sFLASH_EraseBulk        0x08005c41   0x2e  Code  Gb  spi_flash.o [1]
sFLASH_EraseSector      0x08005bfd   0x44  Code  Gb  spi_flash.o [1]
sFLASH_EraseWritePage   0x08005ccb   0x62  Code  Gb  spi_flash.o [1]
sFLASH_PoolInit         0x08005ec1  0x126  Code  Gb  spi_flash.o [1]
sFLASH_ReadBuffer       0x08005d2d   0x56  Code  Gb  spi_flash.o [1]
sFLASH_ReadID           0x08005ddf   0x54  Code  Gb  spi_flash.o [1]
sFLASH_ReadStr          0x08005d83   0x5c  Code  Gb  spi_flash.o [1]
sFLASH_SendByte         0x08005e33   0x3a  Code  Gb  spi_flash.o [1]
sFLASH_WaitForWriteEnd  0x08005e8f   0x32  Code  Gb  spi_flash.o [1]
sFLASH_WriteEnable      0x08005e6d   0x22  Code  Gb  spi_flash.o [1]
sFLASH_WritePage        0x08005c6f   0x5c  Code  Gb  spi_flash.o [1]
search_cjq              0x080026ed   0x64  Code  Gb  tasks.o [1]
search_meter            0x08002259   0x6c  Code  Gb  tasks.o [1]
send_server             0x08004c19   0x9e  Code  Gb  m590e.o [1]
slave_mbus              0x20000076    0x1  Data  Gb  main.o [1]
sprintf                 0x08006329   0x34  Code  Gb  sprintf.o [3]
start_slave             0x20004078    0x1  Data  Gb  tasks.o [1]
strchr                  0x08009c01         Code  Gb  strchr.o [5]
strlen                  0x08009c19         Code  Gb  strlen.o [5]
username                0x2000004c    0xc  Data  Gb  m590e.o [1]


[1] = D:\IAR_Workspace\STM32F103MBUS\Test\Debug\Obj
[2] = command line
[3] = dl7M_tln.a
[4] = m7M_tl.a
[5] = rt7M_tl.a
[6] = shb_l.a

  45 032 bytes of readonly  code memory
     932 bytes of readonly  data memory
  18 553 bytes of readwrite data memory

Errors: none
Warnings: none
